target datalayout = "e-m:e-p270:32:32-p271:32:32-p272:64:64-i64:64-i128:128-f80:128-n8:16:32:64-S128"
target triple = "x86_64-pc-linux-gnu"

%struct.expert_field = type { i32, i32 }

@hf_ulmap_ie_diuc_ext2 = internal global i32 0, align 4
@hf_ulmap_ie_length = internal global i32 0, align 4
@ett_302e = internal global i32 0, align 4
@ei_ulmap_not_implemented = internal global %struct.expert_field zeroinitializer, align 4
@.str.527 = private unnamed_addr constant [27 x i8] c"HO_Active_Anchor_UL_MAP_IE\00", align 1

; Function Attrs: null_pointer_is_valid sspstrong uwtable
define internal i32 @HO_Active_Anchor_UL_MAP_IE(ptr noundef %0, ptr noundef %1, i32 noundef %2, i32 noundef %3, ptr noundef %4) #1 {
  %6 = alloca ptr, align 8
  %7 = alloca ptr, align 8
  %8 = alloca i32, align 4
  %9 = alloca i32, align 4
  %10 = alloca ptr, align 8
  %11 = alloca i32, align 4
  %12 = alloca i32, align 4
  %13 = alloca ptr, align 8
  store ptr %0, ptr %6, align 8
  store ptr %1, ptr %7, align 8
  store i32 %2, ptr %8, align 4
  store i32 %3, ptr %9, align 4
  store ptr %4, ptr %10, align 8
  call void @llvm.lifetime.start.p0(i64 4, ptr %11) #5
  call void @llvm.lifetime.start.p0(i64 4, ptr %12) #5
  call void @llvm.lifetime.start.p0(i64 8, ptr %13) #5
  %14 = load i32, ptr %8, align 4
  store i32 %14, ptr %11, align 4
  %15 = load ptr, ptr %6, align 8
  %16 = load ptr, ptr %10, align 8
  %17 = load i32, ptr %8, align 4
  %18 = sdiv i32 %17, 2
  %19 = load i32, ptr %8, align 4
  %20 = and i32 %19, 1
  %21 = add i32 1, %20
  %22 = load i32, ptr %9, align 4
  %23 = add i32 %21, %22
  %24 = sdiv i32 %23, 2
  %25 = load i32, ptr @ett_302e, align 4
  %26 = call ptr @proto_tree_add_subtree(ptr noundef %15, ptr noundef %16, i32 noundef %18, i32 noundef %24, i32 noundef %25, ptr noundef null, ptr noundef @.str.527)
  store ptr %26, ptr %13, align 8
  br label %27

27:                                               ; preds = %5
  %28 = load i32, ptr %11, align 4
  %29 = and i32 %28, 1
  %30 = icmp ne i32 %29, 0
  br i1 %30, label %31, label %38

31:                                               ; preds = %27
  %32 = load ptr, ptr %10, align 8
  %33 = load i32, ptr %11, align 4
  %34 = sdiv i32 %33, 2
  %35 = call zeroext i8 @tvb_get_uint8(ptr noundef %32, i32 noundef %34)
  %36 = zext i8 %35 to i32
  %37 = and i32 %36, 15
  br label %46

38:                                               ; preds = %27
  %39 = load ptr, ptr %10, align 8
  %40 = load i32, ptr %11, align 4
  %41 = sdiv i32 %40, 2
  %42 = call zeroext i8 @tvb_get_uint8(ptr noundef %39, i32 noundef %41)
  %43 = zext i8 %42 to i32
  %44 = ashr i32 %43, 4
  %45 = and i32 %44, 15
  br label %46

46:                                               ; preds = %38, %31
  %47 = phi i32 [ %37, %31 ], [ %45, %38 ]
  store i32 %47, ptr %12, align 4
  %48 = load ptr, ptr %13, align 8
  %49 = load i32, ptr @hf_ulmap_ie_diuc_ext2, align 4
  %50 = load ptr, ptr %10, align 8
  %51 = load i32, ptr %11, align 4
  %52 = sdiv i32 %51, 2
  %53 = load i32, ptr %11, align 4
  %54 = and i32 %53, 1
  %55 = add i32 1, %54
  %56 = add i32 %55, 1
  %57 = sdiv i32 %56, 2
  %58 = load i32, ptr %12, align 4
  %59 = call ptr @proto_tree_add_uint(ptr noundef %48, i32 noundef %49, ptr noundef %50, i32 noundef %52, i32 noundef %57, i32 noundef %58)
  %60 = load i32, ptr %11, align 4
  %61 = add i32 %60, 1
  store i32 %61, ptr %11, align 4
  br label %62

62:                                               ; preds = %46
  br label %63

63:                                               ; preds = %62
  br label %64

64:                                               ; preds = %63
  %65 = load i32, ptr %11, align 4
  %66 = and i32 %65, 1
  %67 = icmp ne i32 %66, 0
  br i1 %67, label %68, label %76

68:                                               ; preds = %64
  %69 = load ptr, ptr %10, align 8
  %70 = load i32, ptr %11, align 4
  %71 = sdiv i32 %70, 2
  %72 = call zeroext i16 @tvb_get_ntohs(ptr noundef %69, i32 noundef %71)
  %73 = zext i16 %72 to i32
  %74 = ashr i32 %73, 4
  %75 = and i32 %74, 255
  br label %82

76:                                               ; preds = %64
  %77 = load ptr, ptr %10, align 8
  %78 = load i32, ptr %11, align 4
  %79 = sdiv i32 %78, 2
  %80 = call zeroext i8 @tvb_get_uint8(ptr noundef %77, i32 noundef %79)
  %81 = zext i8 %80 to i32
  br label %82

82:                                               ; preds = %76, %68
  %83 = phi i32 [ %75, %68 ], [ %81, %76 ]
  store i32 %83, ptr %12, align 4
  %84 = load ptr, ptr %13, align 8
  %85 = load i32, ptr @hf_ulmap_ie_length, align 4
  %86 = load ptr, ptr %10, align 8
  %87 = load i32, ptr %11, align 4
  %88 = sdiv i32 %87, 2
  %89 = load i32, ptr %11, align 4
  %90 = and i32 %89, 1
  %91 = add i32 1, %90
  %92 = add i32 %91, 2
  %93 = sdiv i32 %92, 2
  %94 = load i32, ptr %12, align 4
  %95 = call ptr @proto_tree_add_uint(ptr noundef %84, i32 noundef %85, ptr noundef %86, i32 noundef %88, i32 noundef %93, i32 noundef %94)
  %96 = load i32, ptr %11, align 4
  %97 = add i32 %96, 2
  store i32 %97, ptr %11, align 4
  br label %98

98:                                               ; preds = %82
  br label %99

99:                                               ; preds = %98
  %100 = load ptr, ptr %13, align 8
  %101 = load ptr, ptr %7, align 8
  %102 = load ptr, ptr %10, align 8
  %103 = load i32, ptr %11, align 4
  %104 = sdiv i32 %103, 2
  %105 = load i32, ptr %11, align 4
  %106 = and i32 %105, 1
  %107 = add i32 1, %106
  %108 = load i32, ptr %9, align 4
  %109 = sub i32 %108, 3
  %110 = add i32 %107, %109
  %111 = sdiv i32 %110, 2
  %112 = call ptr @proto_tree_add_expert(ptr noundef %100, ptr noundef %101, ptr noundef @ei_ulmap_not_implemented, ptr noundef %102, i32 noundef %104, i32 noundef %111)
  %113 = load i32, ptr %11, align 4
  call void @llvm.lifetime.end.p0(i64 8, ptr %13) #5
  call void @llvm.lifetime.end.p0(i64 4, ptr %12) #5
  call void @llvm.lifetime.end.p0(i64 4, ptr %11) #5
  ret i32 %113
}