; Function Attrs: null_pointer_is_valid sspstrong uwtable
define internal fastcc noundef i32 @HO_Active_Anchor_UL_MAP_IE(ptr noundef %0, ptr noundef %1, i32 noundef %2, i32 noundef range(i32 3, 514) %3, ptr noundef %4) unnamed_addr #1 {
  %6 = sdiv i32 %2, 2
  %7 = and i32 %2, 1
  %8 = add nuw nsw i32 %7, 1
  %9 = add nuw nsw i32 %8, %3
  %10 = lshr i32 %9, 1
  %11 = load i32, ptr @ett_302e, align 4
  %12 = tail call ptr @proto_tree_add_subtree(ptr noundef %0, ptr noundef %4, i32 noundef %6, i32 noundef %10, i32 noundef %11, ptr noundef null, ptr noundef nonnull @.str.527)
  %.not = icmp eq i32 %7, 0
  %13 = tail call zeroext i8 @tvb_get_uint8(ptr noundef %4, i32 noundef %6)
  %14 = and i8 %13, 15
  %15 = lshr i8 %13, 4
  %.in = select i1 %.not, i8 %15, i8 %14
  %16 = zext nneg i8 %.in to i32
  %17 = load i32, ptr @hf_ulmap_ie_diuc_ext2, align 4
  %18 = tail call ptr @proto_tree_add_uint(ptr noundef %12, i32 noundef %17, ptr noundef %4, i32 noundef %6, i32 noundef 1, i32 noundef %16)
  %19 = add i32 %2, 1
  %20 = and i32 %19, 1
  %.not34 = icmp eq i32 %20, 0
  br i1 %.not34, label %27, label %21

21:                                               ; preds = %5
  %22 = sdiv i32 %19, 2
  %23 = tail call zeroext i16 @tvb_get_ntohs(ptr noundef %4, i32 noundef %22)
  %24 = lshr i16 %23, 4
  %25 = and i16 %24, 255
  %26 = zext nneg i16 %25 to i32
  br label %31

27:                                               ; preds = %5
  %28 = ashr exact i32 %19, 1
  %29 = tail call zeroext i8 @tvb_get_uint8(ptr noundef %4, i32 noundef %28)
  %30 = zext i8 %29 to i32
  %.pre = ashr exact i32 %19, 1
  br label %31

31:                                               ; preds = %27, %21
  %.pre-phi = phi i32 [ %.pre, %27 ], [ %22, %21 ]
  %32 = phi i32 [ %30, %27 ], [ %26, %21 ]
  %33 = load i32, ptr @hf_ulmap_ie_length, align 4
  %34 = add nuw nsw i32 %20, 3
  %35 = lshr i32 %34, 1
  %36 = tail call ptr @proto_tree_add_uint(ptr noundef %12, i32 noundef %33, ptr noundef %4, i32 noundef %.pre-phi, i32 noundef %35, i32 noundef %32)
  %37 = add i32 %2, 3
  %38 = sdiv i32 %37, 2
  %39 = and i32 %37, 1
  %40 = add nsw i32 %3, -2
  %41 = add nuw nsw i32 %40, %39
  %42 = lshr i32 %41, 1
  %43 = tail call ptr @proto_tree_add_expert(ptr noundef %12, ptr noundef %1, ptr noundef nonnull @ei_ulmap_not_implemented, ptr noundef %4, i32 noundef %38, i32 noundef %42)
  ret i32 %37
}